; Function Attrs: nounwind uwtable
define internal void @joystick_udev_callback(i32 noundef %0, i32 noundef %1, ptr noundef %2) #0 {
  %.not = icmp eq ptr %2, null
  br i1 %.not, label %IsJoystickJSNode.exit14, label %4

4:                                                ; preds = %3
  switch i32 %0, label %IsJoystickJSNode.exit14 [
    i32 1, label %5
    i32 2, label %31
  ]

5:                                                ; preds = %4
  %6 = and i32 %1, 36
  %.not6 = icmp eq i32 %6, 0
  br i1 %.not6, label %IsJoystickJSNode.exit14, label %7

7:                                                ; preds = %5
  %8 = load i8, ptr @SDL_classic_joysticks, align 1, !range !5, !noundef !6
  %9 = trunc nuw i8 %8 to i1
  %10 = tail call ptr @SDL_strrchr_REAL(ptr noundef nonnull %2, i32 noundef 47) #18
  %.not.i = icmp eq ptr %10, null
  %11 = getelementptr inbounds nuw i8, ptr %10, i64 1
  %spec.select.i = select i1 %.not.i, ptr %2, ptr %11
  %12 = tail call zeroext i1 @SDL_startswith(ptr noundef nonnull %spec.select.i, ptr noundef nonnull @.str.13) #18
  br i1 %9, label %13, label %22

13:                                               ; preds = %7
  br i1 %12, label %14, label %IsJoystickJSNode.exit14

14:                                               ; preds = %13
  %15 = getelementptr inbounds nuw i8, ptr %spec.select.i, i64 2
  %16 = load i8, ptr %15, align 1
  %17 = icmp eq i8 %16, 0
  br i1 %17, label %IsJoystickJSNode.exit14, label %.preheader.i.i

.preheader.i.i:                                   ; preds = %14, %20
  %.09.i.i = phi ptr [ %21, %20 ], [ %15, %14 ]
  %18 = phi i8 [ %.pr.i.i, %20 ], [ %16, %14 ]
  %19 = add i8 %18, -48
  %or.cond.i.i = icmp ult i8 %19, 10
  br i1 %or.cond.i.i, label %20, label %IsJoystickJSNode.exit14

20:                                               ; preds = %.preheader.i.i
  %21 = getelementptr inbounds nuw i8, ptr %.09.i.i, i64 1
  %.pr.i.i = load i8, ptr %21, align 1
  %.not.i.i = icmp eq i8 %.pr.i.i, 0
  br i1 %.not.i.i, label %IsJoystickJSNode.exit, label %.preheader.i.i, !llvm.loop !7

22:                                               ; preds = %7
  br i1 %12, label %23, label %IsJoystickJSNode.exit

23:                                               ; preds = %22
  %24 = getelementptr inbounds nuw i8, ptr %spec.select.i, i64 2
  %25 = load i8, ptr %24, align 1
  %26 = icmp eq i8 %25, 0
  br i1 %26, label %IsJoystickJSNode.exit, label %.preheader.i.i9

.preheader.i.i9:                                  ; preds = %23, %29
  %.09.i.i10 = phi ptr [ %30, %29 ], [ %24, %23 ]
  %27 = phi i8 [ %.pr.i.i12, %29 ], [ %25, %23 ]
  %28 = add i8 %27, -48
  %or.cond.i.i11 = icmp ult i8 %28, 10
  br i1 %or.cond.i.i11, label %29, label %IsJoystickJSNode.exit

29:                                               ; preds = %.preheader.i.i9
  %30 = getelementptr inbounds nuw i8, ptr %.09.i.i10, i64 1
  %.pr.i.i12 = load i8, ptr %30, align 1
  %.not.i.i13 = icmp eq i8 %.pr.i.i12, 0
  br i1 %.not.i.i13, label %IsJoystickJSNode.exit14, label %.preheader.i.i9, !llvm.loop !7

IsJoystickJSNode.exit:                            ; preds = %.preheader.i.i9, %20, %23, %22
  tail call void @SDL_Delay_REAL(i32 noundef 10) #18
  tail call fastcc void @MaybeAddDevice(ptr noundef nonnull %2)
  br label %IsJoystickJSNode.exit14

31:                                               ; preds = %4
  tail call fastcc void @MaybeRemoveDevice(ptr noundef %2)
  br label %IsJoystickJSNode.exit14

IsJoystickJSNode.exit14:                          ; preds = %29, %.preheader.i.i, %14, %13, %4, %5, %3, %31, %IsJoystickJSNode.exit
  ret void
}